; Function Attrs: mustprogress nofree norecurse nosync nounwind willreturn memory(read, inaccessiblemem: none) uwtable
define internal i32 @zend_remove_ini_entries(ptr nocapture noundef readonly %0, ptr nocapture noundef readonly %1) #6 {
  %3 = load ptr, ptr %0, align 8
  %4 = load i32, ptr %1, align 4
  %5 = getelementptr inbounds i8, ptr %3, i64 64
  %6 = load i32, ptr %5, align 8
  %7 = icmp eq i32 %6, %4
  %8 = zext i1 %7 to i32
  ret i32 %8
}